; Function Attrs: mustprogress nofree norecurse nosync nounwind willreturn memory(none) uwtable
define range(i32 0, -2147483648) i32 @lv_color_to_hsv(i24 %0) local_unnamed_addr #1 {
  %2 = lshr i24 %0, 6
  %3 = and i24 %2, 261120
  %4 = udiv i24 %3, 255
  %5 = zext nneg i24 %4 to i32
  %6 = shl i24 %0, 2
  %7 = and i24 %6, 261120
  %8 = udiv i24 %7, 255
  %9 = zext nneg i24 %8 to i32
  %10 = shl i24 %0, 10
  %11 = and i24 %10, 261120
  %12 = udiv i24 %11, 255
  %13 = zext nneg i24 %12 to i32
  %..i = tail call i32 @llvm.umin.i32(i32 %5, i32 %9)
  %14 = tail call i32 @llvm.umin.i32(i32 %..i, i32 %13)
  %.sink60.i = tail call i32 @llvm.umax.i32(i32 %5, i32 %9)
  %15 = tail call i32 @llvm.umax.i32(i32 %.sink60.i, i32 %13)
  %16 = sub nsw i32 %15, %14
  %17 = icmp slt i32 %16, 3
  br i1 %17, label %lv_color_rgb_to_hsv.exit, label %18

18:                                               ; preds = %1
  %19 = mul nuw nsw i32 %16, 100
  %20 = udiv i32 %19, %15
  %21 = and i32 %20, 255
  %22 = icmp samesign ult i32 %21, 3
  br i1 %22, label %lv_color_rgb_to_hsv.exit, label %23

23:                                               ; preds = %18
  %24 = icmp eq i32 %15, %5
  br i1 %24, label %25, label %32

25:                                               ; preds = %23
  %26 = sub nsw i32 %9, %13
  %27 = shl nsw i32 %26, 10
  %28 = sdiv i32 %27, %16
  %29 = icmp samesign ult i24 %8, %12
  %30 = select i1 %29, i32 6144, i32 0
  %31 = add nsw i32 %28, %30
  br label %45

32:                                               ; preds = %23
  %33 = icmp eq i32 %15, %9
  br i1 %33, label %34, label %39

34:                                               ; preds = %32
  %35 = sub nsw i32 %13, %5
  %36 = shl nsw i32 %35, 10
  %37 = sdiv i32 %36, %16
  %38 = add nsw i32 %37, 2048
  br label %45

39:                                               ; preds = %32
  %.not.i = icmp samesign ugt i32 %.sink60.i, %13
  br i1 %.not.i, label %45, label %40

40:                                               ; preds = %39
  %41 = sub nsw i32 %5, %9
  %42 = shl nsw i32 %41, 10
  %43 = sdiv i32 %42, %16
  %44 = add nsw i32 %43, 4096
  br label %45

45:                                               ; preds = %40, %39, %34, %25
  %.0.i = phi i32 [ %31, %25 ], [ %38, %34 ], [ %44, %40 ], [ 0, %39 ]
  %46 = mul nsw i32 %.0.i, 60
  %47 = ashr i32 %46, 10
  %48 = icmp slt i32 %47, 0
  %49 = add nsw i32 %47, 360
  %spec.select.i = select i1 %48, i32 %49, i32 %47
  %50 = and i32 %spec.select.i, 65535
  br label %lv_color_rgb_to_hsv.exit

lv_color_rgb_to_hsv.exit:                         ; preds = %1, %18, %45
  %.sroa.0.0.i = phi i32 [ %50, %45 ], [ 0, %1 ], [ 0, %18 ]
  %.sroa.4.0.i = phi i32 [ %20, %45 ], [ 0, %1 ], [ %20, %18 ]
  %51 = mul nuw nsw i32 %15, 1638400
  %.sroa.7.0.insert.ext.i = and i32 %51, 2130706432
  %.sroa.4.0.insert.ext.i = shl i32 %.sroa.4.0.i, 16
  %.sroa.4.0.insert.shift.i = and i32 %.sroa.4.0.insert.ext.i, 16711680
  %.sroa.4.0.insert.insert.i = or disjoint i32 %.sroa.0.0.i, %.sroa.7.0.insert.ext.i
  %.sroa.0.0.insert.insert.i = or disjoint i32 %.sroa.4.0.insert.insert.i, %.sroa.4.0.insert.shift.i
  ret i32 %.sroa.0.0.insert.insert.i
}